target datalayout = "e-m:e-p270:32:32-p271:32:32-p272:64:64-i64:64-i128:128-f80:128-n8:16:32:64-S128"
target triple = "x86_64-pc-linux-gnu"

%struct.PartitionDescData = type { i32, i8, ptr, ptr, ptr, i32, i32, i32 }
%struct.PartitionBoundInfoData = type { i32, i32, ptr, ptr, ptr, i32, ptr, i32, i32 }

; Function Attrs: nounwind uwtable
define dso_local i32 @get_default_oid_from_partdesc(ptr noundef %0) #0 {
  %2 = alloca i32, align 4
  %3 = alloca ptr, align 8
  store ptr %0, ptr %3, align 8
  %4 = load ptr, ptr %3, align 8
  %5 = icmp ne ptr %4, null
  br i1 %5, label %6, label %30

6:                                                ; preds = %1
  %7 = load ptr, ptr %3, align 8
  %8 = getelementptr inbounds nuw %struct.PartitionDescData, ptr %7, i32 0, i32 4
  %9 = load ptr, ptr %8, align 8
  %10 = icmp ne ptr %9, null
  br i1 %10, label %11, label %30

11:                                               ; preds = %6
  %12 = load ptr, ptr %3, align 8
  %13 = getelementptr inbounds nuw %struct.PartitionDescData, ptr %12, i32 0, i32 4
  %14 = load ptr, ptr %13, align 8
  %15 = getelementptr inbounds nuw %struct.PartitionBoundInfoData, ptr %14, i32 0, i32 8
  %16 = load i32, ptr %15, align 4
  %17 = icmp ne i32 %16, -1
  br i1 %17, label %18, label %30

18:                                               ; preds = %11
  %19 = load ptr, ptr %3, align 8
  %20 = getelementptr inbounds nuw %struct.PartitionDescData, ptr %19, i32 0, i32 2
  %21 = load ptr, ptr %20, align 8
  %22 = load ptr, ptr %3, align 8
  %23 = getelementptr inbounds nuw %struct.PartitionDescData, ptr %22, i32 0, i32 4
  %24 = load ptr, ptr %23, align 8
  %25 = getelementptr inbounds nuw %struct.PartitionBoundInfoData, ptr %24, i32 0, i32 8
  %26 = load i32, ptr %25, align 4
  %27 = sext i32 %26 to i64
  %28 = getelementptr inbounds i32, ptr %21, i64 %27
  %29 = load i32, ptr %28, align 4
  store i32 %29, ptr %2, align 4
  br label %31

30:                                               ; preds = %11, %6, %1
  store i32 0, ptr %2, align 4
  br label %31

31:                                               ; preds = %30, %18
  %32 = load i32, ptr %2, align 4
  ret i32 %32
}