; Function Attrs: mustprogress nofree norecurse nosync nounwind willreturn memory(read, inaccessiblemem: none) uwtable
define dso_local i32 @get_default_oid_from_partdesc(ptr noundef readonly captures(address_is_null) %0) local_unnamed_addr #3 {
  %.not = icmp eq ptr %0, null
  br i1 %.not, label %14, label %2

2:                                                ; preds = %1
  %3 = getelementptr inbounds nuw i8, ptr %0, i64 24
  %4 = load ptr, ptr %3, align 8
  %.not8 = icmp eq ptr %4, null
  br i1 %.not8, label %14, label %5

5:                                                ; preds = %2
  %6 = getelementptr inbounds nuw i8, ptr %4, i64 52
  %7 = load i32, ptr %6, align 4
  %.not9 = icmp eq i32 %7, -1
  br i1 %.not9, label %14, label %8

8:                                                ; preds = %5
  %9 = getelementptr inbounds nuw i8, ptr %0, i64 8
  %10 = load ptr, ptr %9, align 8
  %11 = sext i32 %7 to i64
  %12 = getelementptr inbounds i32, ptr %10, i64 %11
  %13 = load i32, ptr %12, align 4
  br label %14

14:                                               ; preds = %1, %2, %5, %8
  %.0 = phi i32 [ %13, %8 ], [ 0, %5 ], [ 0, %2 ], [ 0, %1 ]
  ret i32 %.0
}